; Function Attrs: nofree norecurse nosync nounwind memory(read, argmem: readwrite, inaccessiblemem: none) uwtable
define void @SUNDlsMat_denseMatvec(ptr noundef readonly captures(none) %0, ptr noundef readonly captures(none) %1, ptr noundef captures(none) %2, i64 noundef %3, i64 noundef %4) local_unnamed_addr #1 {
  %6 = icmp sgt i64 %3, 0
  br i1 %6, label %.preheader, label %._crit_edge25

.preheader:                                       ; preds = %5
  %7 = shl nuw i64 %3, 3
  tail call void @llvm.memset.p0.i64(ptr align 8 %2, i8 0, i64 %7, i1 false), !tbaa !15
  %8 = icmp sgt i64 %4, 0
  br i1 %8, label %.lr.ph22.us, label %._crit_edge25

.lr.ph22.us:                                      ; preds = %.preheader, %._crit_edge.us
  %.01823.us = phi i64 [ %20, %._crit_edge.us ], [ 0, %.preheader ]
  %9 = getelementptr inbounds nuw ptr, ptr %0, i64 %.01823.us
  %10 = load ptr, ptr %9, align 8, !tbaa !14
  %11 = getelementptr inbounds nuw double, ptr %1, i64 %.01823.us
  br label %12

12:                                               ; preds = %.lr.ph22.us, %12
  %.121.us = phi i64 [ 0, %.lr.ph22.us ], [ %19, %12 ]
  %13 = getelementptr inbounds nuw double, ptr %10, i64 %.121.us
  %14 = load double, ptr %13, align 8, !tbaa !15
  %15 = load double, ptr %11, align 8, !tbaa !15
  %16 = getelementptr inbounds nuw double, ptr %2, i64 %.121.us
  %17 = load double, ptr %16, align 8, !tbaa !15
  %18 = tail call double @llvm.fmuladd.f64(double %14, double %15, double %17)
  store double %18, ptr %16, align 8, !tbaa !15
  %19 = add nuw nsw i64 %.121.us, 1
  %exitcond.not = icmp eq i64 %19, %3
  br i1 %exitcond.not, label %._crit_edge.us, label %12

._crit_edge.us:                                   ; preds = %12
  %20 = add nuw nsw i64 %.01823.us, 1
  %exitcond27.not = icmp eq i64 %20, %4
  br i1 %exitcond27.not, label %._crit_edge25, label %.lr.ph22.us

._crit_edge25:                                    ; preds = %._crit_edge.us, %5, %.preheader
  ret void
}